target datalayout = "e-m:e-p270:32:32-p271:32:32-p272:64:64-i64:64-i128:128-f80:128-n8:16:32:64-S128"
target triple = "x86_64-pc-linux-gnu"

@php_sha512_crypt.buffer = internal global ptr null, align 8
@php_sha512_crypt.buflen = internal global i32 0, align 4

; Function Attrs: nounwind uwtable
define hidden ptr @php_sha512_crypt(ptr noundef %0, ptr noundef %1) #0 {
  %3 = alloca ptr, align 8
  %4 = alloca ptr, align 8
  %5 = alloca ptr, align 8
  %6 = alloca i32, align 4
  %7 = alloca ptr, align 8
  store ptr %0, ptr %4, align 8
  store ptr %1, ptr %5, align 8
  %8 = load ptr, ptr %5, align 8
  %9 = call i64 @strlen(ptr noundef %8) #9
  %10 = add i64 21, %9
  %11 = add i64 %10, 1
  %12 = add i64 %11, 86
  %13 = add i64 %12, 1
  %14 = trunc i64 %13 to i32
  store i32 %14, ptr %6, align 4
  %15 = load i32, ptr @php_sha512_crypt.buflen, align 4
  %16 = load i32, ptr %6, align 4
  %17 = icmp slt i32 %15, %16
  br i1 %17, label %18, label %29

18:                                               ; preds = %2
  %19 = load ptr, ptr @php_sha512_crypt.buffer, align 8
  %20 = load i32, ptr %6, align 4
  %21 = sext i32 %20 to i64
  %22 = call ptr @realloc(ptr noundef %19, i64 noundef %21) #13
  store ptr %22, ptr %7, align 8
  %23 = load ptr, ptr %7, align 8
  %24 = icmp eq ptr %23, null
  br i1 %24, label %25, label %26

25:                                               ; preds = %18
  store ptr null, ptr %3, align 8
  br label %35

26:                                               ; preds = %18
  %27 = load ptr, ptr %7, align 8
  store ptr %27, ptr @php_sha512_crypt.buffer, align 8
  %28 = load i32, ptr %6, align 4
  store i32 %28, ptr @php_sha512_crypt.buflen, align 4
  br label %29

29:                                               ; preds = %26, %2
  %30 = load ptr, ptr %4, align 8
  %31 = load ptr, ptr %5, align 8
  %32 = load ptr, ptr @php_sha512_crypt.buffer, align 8
  %33 = load i32, ptr @php_sha512_crypt.buflen, align 4
  %34 = call ptr @php_sha512_crypt_r(ptr noundef %30, ptr noundef %31, ptr noundef %32, i32 noundef %33)
  store ptr %34, ptr %3, align 8
  br label %35

35:                                               ; preds = %29, %25
  %36 = load ptr, ptr %3, align 8
  ret ptr %36
}