; Function Attrs: nounwind uwtable
define hidden noundef ptr @php_sha512_crypt(ptr noundef %0, ptr noundef %1) local_unnamed_addr #0 {
  %3 = tail call i64 @strlen(ptr noundef nonnull dereferenceable(1) %1) #13
  %4 = trunc i64 %3 to i32
  %5 = add i32 %4, 109
  %6 = load i32, ptr @php_sha512_crypt.buflen, align 4
  %7 = icmp slt i32 %6, %5
  %.pre = load ptr, ptr @php_sha512_crypt.buffer, align 8
  br i1 %7, label %8, label %13

8:                                                ; preds = %2
  %9 = zext nneg i32 %5 to i64
  %10 = tail call ptr @realloc(ptr noundef %.pre, i64 noundef %9) #17
  %11 = icmp eq ptr %10, null
  br i1 %11, label %17, label %12

12:                                               ; preds = %8
  store ptr %10, ptr @php_sha512_crypt.buffer, align 8
  store i32 %5, ptr @php_sha512_crypt.buflen, align 4
  br label %13

13:                                               ; preds = %12, %2
  %14 = phi i32 [ %5, %12 ], [ %6, %2 ]
  %15 = phi ptr [ %10, %12 ], [ %.pre, %2 ]
  %16 = tail call ptr @php_sha512_crypt_r(ptr noundef %0, ptr noundef %1, ptr noundef %15, i32 noundef %14)
  br label %17

17:                                               ; preds = %8, %13
  %.0 = phi ptr [ %16, %13 ], [ null, %8 ]
  ret ptr %.0
}